; Function Attrs: mustprogress nofree norecurse nounwind memory(readwrite, inaccessiblemem: none) uwtable
define hidden noundef zeroext i1 @_Z18_mi_arena_containsPKv(ptr noundef readnone captures(address) %0) local_unnamed_addr #14 {
  %2 = load atomic i64, ptr @_ZL14mi_arena_count monotonic, align 64
  %.not1924.not = icmp eq i64 %2, 0
  br i1 %.not1924.not, label %.critedge21, label %.lr.ph

.lr.ph:                                           ; preds = %1, %.critedge
  %.01525 = phi i64 [ %15, %.critedge ], [ 0, %1 ]
  %3 = getelementptr inbounds nuw [132 x %"struct.std::atomic.6"], ptr @_ZL9mi_arenas, i64 0, i64 %.01525
  %4 = load atomic i64, ptr %3 monotonic, align 8
  %.0.i.i.i = inttoptr i64 %4 to ptr
  %.not = icmp eq i64 %4, 0
  br i1 %.not, label %.critedge, label %5

5:                                                ; preds = %.lr.ph
  %6 = getelementptr inbounds nuw i8, ptr %.0.i.i.i, i64 32
  %7 = load atomic i64, ptr %6 seq_cst, align 8
  %.0.i.i.i22 = inttoptr i64 %7 to ptr
  %.not18 = icmp ult ptr %0, %.0.i.i.i22
  br i1 %.not18, label %.critedge, label %8

8:                                                ; preds = %5
  %9 = load atomic i64, ptr %6 seq_cst, align 8
  %.0.i.i.i23 = inttoptr i64 %9 to ptr
  %10 = getelementptr inbounds nuw i8, ptr %.0.i.i.i, i64 40
  %11 = load i64, ptr %10, align 8, !tbaa !39
  %12 = shl i64 %11, 25
  %13 = getelementptr inbounds nuw i8, ptr %.0.i.i.i23, i64 %12
  %14 = icmp ugt ptr %13, %0
  br i1 %14, label %.critedge21, label %.critedge

.critedge:                                        ; preds = %8, %5, %.lr.ph
  %15 = add nuw i64 %.01525, 1
  %exitcond.not = icmp eq i64 %15, %2
  br i1 %exitcond.not, label %.critedge21, label %.lr.ph, !llvm.loop !49

.critedge21:                                      ; preds = %8, %.critedge, %1
  %.not19.lcssa = phi i1 [ false, %1 ], [ false, %.critedge ], [ true, %8 ]
  ret i1 %.not19.lcssa
}